target datalayout = "e-m:e-p270:32:32-p271:32:32-p272:64:64-i64:64-i128:128-f80:128-n8:16:32:64-S128"
target triple = "x86_64-pc-linux-gnu"

@interp_whence.kwlist = internal global [2 x ptr] [ptr @.str.33, ptr null], align 16
@.str.48 = private unnamed_addr constant [9 x i8] c"O:whence\00", align 1

; Function Attrs: nounwind uwtable
define internal i64 @get_whence(ptr noundef %0) #0 {
  %2 = alloca ptr, align 8
  store ptr %0, ptr %2, align 8, !tbaa !15
  %3 = load ptr, ptr %2, align 8, !tbaa !15
  %4 = call i64 @_PyInterpreterState_GetWhence(ptr noundef %3)
  ret i64 %4
}

; Function Attrs: nounwind uwtable
define internal ptr @interp_whence(ptr noundef %0, ptr noundef %1, ptr noundef %2) #0 {
  %4 = alloca ptr, align 8
  %5 = alloca ptr, align 8
  %6 = alloca ptr, align 8
  %7 = alloca ptr, align 8
  %8 = alloca ptr, align 8
  %9 = alloca i32, align 4
  %10 = alloca ptr, align 8
  %11 = alloca i64, align 8
  store ptr %0, ptr %5, align 8, !tbaa !3
  store ptr %1, ptr %6, align 8, !tbaa !3
  store ptr %2, ptr %7, align 8, !tbaa !3
  call void @llvm.lifetime.start.p0(i64 8, ptr %8) #8
  %12 = load ptr, ptr %6, align 8, !tbaa !3
  %13 = load ptr, ptr %7, align 8, !tbaa !3
  %14 = call i32 (ptr, ptr, ptr, ptr, ...) @PyArg_ParseTupleAndKeywords(ptr noundef %12, ptr noundef %13, ptr noundef @.str.48, ptr noundef @interp_whence.kwlist, ptr noundef %8)
  %15 = icmp ne i32 %14, 0
  br i1 %15, label %17, label %16

16:                                               ; preds = %3
  store ptr null, ptr %4, align 8
  store i32 1, ptr %9, align 4
  br label %29

17:                                               ; preds = %3
  call void @llvm.lifetime.start.p0(i64 8, ptr %10) #8
  %18 = load ptr, ptr %8, align 8, !tbaa !3
  %19 = call ptr @_PyInterpreterState_LookUpIDObject(ptr noundef %18)
  store ptr %19, ptr %10, align 8, !tbaa !15
  %20 = load ptr, ptr %10, align 8, !tbaa !15
  %21 = icmp eq ptr %20, null
  br i1 %21, label %22, label %23

22:                                               ; preds = %17
  store ptr null, ptr %4, align 8
  store i32 1, ptr %9, align 4
  br label %28

23:                                               ; preds = %17
  call void @llvm.lifetime.start.p0(i64 8, ptr %11) #8
  %24 = load ptr, ptr %10, align 8, !tbaa !15
  %25 = call i64 @get_whence(ptr noundef %24)
  store i64 %25, ptr %11, align 8, !tbaa !13
  %26 = load i64, ptr %11, align 8, !tbaa !13
  %27 = call ptr @PyLong_FromLong(i64 noundef %26)
  store ptr %27, ptr %4, align 8
  store i32 1, ptr %9, align 4
  call void @llvm.lifetime.end.p0(i64 8, ptr %11) #8
  br label %28

28:                                               ; preds = %23, %22
  call void @llvm.lifetime.end.p0(i64 8, ptr %10) #8
  br label %29

29:                                               ; preds = %28, %16
  call void @llvm.lifetime.end.p0(i64 8, ptr %8) #8
  %30 = load ptr, ptr %4, align 8
  ret ptr %30
}