; Function Attrs: nounwind uwtable
define internal ptr @interp_whence(ptr readnone captures(none) %0, ptr noundef %1, ptr noundef %2) #0 {
  %4 = alloca ptr, align 8
  call void @llvm.lifetime.start.p0(i64 8, ptr nonnull %4) #7
  %5 = call i32 (ptr, ptr, ptr, ptr, ...) @PyArg_ParseTupleAndKeywords(ptr noundef %1, ptr noundef %2, ptr noundef nonnull @.str.48, ptr noundef nonnull @interp_whence.kwlist, ptr noundef nonnull %4) #7
  %.not = icmp eq i32 %5, 0
  br i1 %.not, label %13, label %6

6:                                                ; preds = %3
  %7 = load ptr, ptr %4, align 8, !tbaa !15
  %8 = call ptr @_PyInterpreterState_LookUpIDObject(ptr noundef %7) #7
  %9 = icmp eq ptr %8, null
  br i1 %9, label %13, label %10

10:                                               ; preds = %6
  %11 = call i64 @_PyInterpreterState_GetWhence(ptr noundef nonnull %8) #7
  %12 = call ptr @PyLong_FromLong(i64 noundef %11) #7
  br label %13

13:                                               ; preds = %10, %6, %3
  %.0 = phi ptr [ null, %3 ], [ %12, %10 ], [ null, %6 ]
  call void @llvm.lifetime.end.p0(i64 8, ptr nonnull %4) #7
  ret ptr %.0
}